; Function Attrs: mustprogress uwtable
define hidden void @_ZN4cvc58internal6theory16RelevanceManager16getDifficultyMapERSt3mapINS0_12NodeTemplateILb1EEES5_St4lessIS5_ESaISt4pairIKS5_S5_EEEb(ptr noundef nonnull readonly align 8 captures(none) dereferenceable(656) %0, ptr noundef nonnull align 1 %1, i1 noundef zeroext %2) local_unnamed_addr #4 align 2 {
  %4 = getelementptr inbounds nuw i8, ptr %0, i64 648
  %5 = load ptr, ptr %4, align 8, !tbaa !293
  %.not = icmp eq ptr %5, null
  br i1 %.not, label %7, label %6

6:                                                ; preds = %3
  tail call void @_ZN4cvc58internal6theory17DifficultyManager16getDifficultyMapERSt3mapINS0_12NodeTemplateILb1EEES5_St4lessIS5_ESaISt4pairIKS5_S5_EEEb(ptr noundef nonnull align 8 dereferenceable(256) %5, ptr noundef nonnull align 1 %1, i1 noundef zeroext %2)
  br label %7

7:                                                ; preds = %6, %3
  ret void
}